target datalayout = "e-m:e-p270:32:32-p271:32:32-p272:64:64-i64:64-i128:128-f80:128-n8:16:32:64-S128"
target triple = "x86_64-unknown-linux-gnu"

%"class.folly::f14::detail::F14Table.749" = type { ptr, i64, %"struct.folly::f14::detail::SizeAndPackedBegin.758" }
%"struct.folly::f14::detail::SizeAndPackedBegin.758" = type { i64, %"class.folly::f14::detail::PackedChunkItemPtr.759" }
%"class.folly::f14::detail::PackedChunkItemPtr.759" = type { i64 }
%"class.folly::detail::ScopeGuardImplBase" = type { i8 }
%"class.std::allocator.726" = type { i8 }
%"class.std::allocator.732" = type { i8 }
%"class.folly::detail::ScopeGuardImpl.776" = type { %"class.folly::detail::ScopeGuardImplBase", %class.anon.777 }
%class.anon.777 = type { ptr, ptr, ptr, ptr, ptr, ptr, ptr, ptr, ptr, ptr, ptr }

; Function Attrs: mustprogress nounwind uwtable
define linkonce_odr void @_ZNSt15__new_allocatorINSt15aligned_storageILm16ELm16EE4typeEED2Ev(ptr noundef nonnull align 1 dereferenceable(1) %this) unnamed_addr #2 comdat align 2 {
entry:
  %this.addr = alloca ptr, align 8
  store ptr %this, ptr %this.addr, align 8
  ret void
}

; Function Attrs: mustprogress nounwind uwtable
define linkonce_odr void @_ZNSt15__new_allocatorINSt15aligned_storageILm16ELm16EE4typeEE10deallocateEPS2_m(ptr noundef nonnull align 1 dereferenceable(1) %this, ptr noundef %__p, i64 noundef %__n) #2 comdat align 2 {
entry:
  %this.addr = alloca ptr, align 8
  %__p.addr = alloca ptr, align 8
  %__n.addr = alloca i64, align 8
  store ptr %this, ptr %this.addr, align 8
  store ptr %__p, ptr %__p.addr, align 8
  store i64 %__n, ptr %__n.addr, align 8
  %0 = load ptr, ptr %__p.addr, align 8
  call void @_ZdlPv(ptr noundef %0) #33
  ret void
}

; Function Attrs: mustprogress nounwind uwtable
define linkonce_odr void @_ZNSt15__new_allocatorINSt15aligned_storageILm16ELm16EE4typeEEC2Ev(ptr noundef nonnull align 1 dereferenceable(1) %this) unnamed_addr #2 comdat align 2 {
entry:
  %this.addr = alloca ptr, align 8
  store ptr %this, ptr %this.addr, align 8
  ret void
}

; Function Attrs: mustprogress nounwind uwtable
define linkonce_odr void @_ZNSaINSt15aligned_storageILm16ELm16EE4typeEED2Ev(ptr noundef nonnull align 1 dereferenceable(1) %this) unnamed_addr #2 comdat align 2 {
entry:
  %this.addr = alloca ptr, align 8
  store ptr %this, ptr %this.addr, align 8
  %this1 = load ptr, ptr %this.addr, align 8
  call void @_ZNSt15__new_allocatorINSt15aligned_storageILm16ELm16EE4typeEED2Ev(ptr noundef nonnull align 1 dereferenceable(1) %this1) #29
  ret void
}

; Function Attrs: mustprogress uwtable
define linkonce_odr void @_ZNSt16allocator_traitsISaINSt15aligned_storageILm16ELm16EE4typeEEE10deallocateERS3_PS2_m(ptr noundef nonnull align 1 dereferenceable(1) %__a, ptr noundef %__p, i64 noundef %__n) #0 comdat align 2 {
entry:
  %__a.addr = alloca ptr, align 8
  %__p.addr = alloca ptr, align 8
  %__n.addr = alloca i64, align 8
  store ptr %__a, ptr %__a.addr, align 8
  store ptr %__p, ptr %__p.addr, align 8
  store i64 %__n, ptr %__n.addr, align 8
  %0 = load ptr, ptr %__a.addr, align 8
  %1 = load ptr, ptr %__p.addr, align 8
  %2 = load i64, ptr %__n.addr, align 8
  call void @_ZNSt15__new_allocatorINSt15aligned_storageILm16ELm16EE4typeEE10deallocateEPS2_m(ptr noundef nonnull align 1 dereferenceable(1) %0, ptr noundef %1, i64 noundef %2)
  ret void
}

; Function Attrs: mustprogress nounwind uwtable
define linkonce_odr noundef ptr @_ZNSt19__ptr_traits_ptr_toIPNSt15aligned_storageILm16ELm16EE4typeES2_Lb0EE10pointer_toERS2_(ptr noundef nonnull align 16 dereferenceable(16) %__r) #2 comdat align 2 {
entry:
  %__r.addr = alloca ptr, align 8
  store ptr %__r, ptr %__r.addr, align 8
  %0 = load ptr, ptr %__r.addr, align 8
  ret ptr %0
}

; Function Attrs: mustprogress nounwind uwtable
define linkonce_odr void @_ZNSaINSt15aligned_storageILm16ELm16EE4typeEEC2IhEERKSaIT_E(ptr noundef nonnull align 1 dereferenceable(1) %this, ptr noundef nonnull align 1 dereferenceable(1) %0) unnamed_addr #2 comdat align 2 {
entry:
  %this.addr = alloca ptr, align 8
  %.addr = alloca ptr, align 8
  store ptr %this, ptr %this.addr, align 8
  store ptr %0, ptr %.addr, align 8
  %this1 = load ptr, ptr %this.addr, align 8
  call void @_ZNSt15__new_allocatorINSt15aligned_storageILm16ELm16EE4typeEEC2Ev(ptr noundef nonnull align 1 dereferenceable(1) %this1) #29
  ret void
}

; Function Attrs: mustprogress nounwind uwtable
define linkonce_odr void @_ZNSt15__new_allocatorIhED2Ev(ptr noundef nonnull align 1 dereferenceable(1) %this) unnamed_addr #2 comdat align 2 {
entry:
  %this.addr = alloca ptr, align 8
  store ptr %this, ptr %this.addr, align 8
  ret void
}

; Function Attrs: mustprogress uwtable
define linkonce_odr void @_ZN5folly6detail18rawOverAlignedImplISaIhELm16ELb0EEEvRKT_mRPv(ptr noundef nonnull align 1 dereferenceable(1) %alloc, i64 noundef %n, ptr noundef nonnull align 8 dereferenceable(8) %raw) #0 comdat personality ptr @__gxx_personality_v0 {
entry:
  %alloc.addr = alloca ptr, align 8
  %n.addr = alloca i64, align 8
  %raw.addr = alloca ptr, align 8
  %kCanBypass = alloca i8, align 1
  %kBaseAlign = alloca i64, align 8
  %a = alloca %"class.std::allocator.732", align 1
  %quanta = alloca i64, align 8
  %exn.slot = alloca ptr, align 8
  %ehselector.slot = alloca i32, align 4
  store ptr %alloc, ptr %alloc.addr, align 8
  store i64 %n, ptr %n.addr, align 8
  store ptr %raw, ptr %raw.addr, align 8
  store i8 1, ptr %kCanBypass, align 1
  store i64 16, ptr %kBaseAlign, align 8
  %0 = load ptr, ptr %alloc.addr, align 8
  call void @_ZNSaINSt15aligned_storageILm16ELm16EE4typeEEC2IhEERKSaIT_E(ptr noundef nonnull align 1 dereferenceable(1) %a, ptr noundef nonnull align 1 dereferenceable(1) %0) #29
  %1 = load i64, ptr %n.addr, align 8
  %mul = mul i64 %1, 1
  %add = add i64 %mul, 16
  %sub = sub i64 %add, 1
  %div = udiv i64 %sub, 16
  store i64 %div, ptr %quanta, align 8
  %2 = load ptr, ptr %raw.addr, align 8
  %3 = load ptr, ptr %2, align 8
  %call = call noundef ptr @_ZNSt19__ptr_traits_ptr_toIPNSt15aligned_storageILm16ELm16EE4typeES2_Lb0EE10pointer_toERS2_(ptr noundef nonnull align 16 dereferenceable(16) %3) #29
  %4 = load i64, ptr %quanta, align 8
  invoke void @_ZNSt16allocator_traitsISaINSt15aligned_storageILm16ELm16EE4typeEEE10deallocateERS3_PS2_m(ptr noundef nonnull align 1 dereferenceable(1) %a, ptr noundef %call, i64 noundef %4)
          to label %invoke.cont unwind label %lpad

invoke.cont:                                      ; preds = %entry
  call void @_ZNSaINSt15aligned_storageILm16ELm16EE4typeEED2Ev(ptr noundef nonnull align 1 dereferenceable(1) %a) #29
  ret void

lpad:                                             ; preds = %entry
  %5 = landingpad { ptr, i32 }
          cleanup
  %6 = extractvalue { ptr, i32 } %5, 0
  store ptr %6, ptr %exn.slot, align 8
  %7 = extractvalue { ptr, i32 } %5, 1
  store i32 %7, ptr %ehselector.slot, align 4
  call void @_ZNSaINSt15aligned_storageILm16ELm16EE4typeEED2Ev(ptr noundef nonnull align 1 dereferenceable(1) %a) #29
  br label %eh.resume

eh.resume:                                        ; preds = %lpad
  %exn = load ptr, ptr %exn.slot, align 8
  %sel = load i32, ptr %ehselector.slot, align 4
  %lpad.val = insertvalue { ptr, i32 } poison, ptr %exn, 0
  %lpad.val1 = insertvalue { ptr, i32 } %lpad.val, i32 %sel, 1
  resume { ptr, i32 } %lpad.val1
}

; Function Attrs: mustprogress nounwind uwtable
define linkonce_odr void @_ZNSt15__new_allocatorIhEC2Ev(ptr noundef nonnull align 1 dereferenceable(1) %this) unnamed_addr #2 comdat align 2 {
entry:
  %this.addr = alloca ptr, align 8
  store ptr %this, ptr %this.addr, align 8
  ret void
}

; Function Attrs: mustprogress nounwind uwtable
define internal noundef nonnull align 1 dereferenceable(1) ptr @_ZN5folly3f146detail12ObjectHolderILc65ESaIN8facebook5velox9functions12_GLOBAL__N_122ComplexTypeInPredicate12ComplexValueEELb1EEdeEv(ptr noundef nonnull align 1 dereferenceable(1) %this) #2 align 2 {
entry:
  %this.addr = alloca ptr, align 8
  store ptr %this, ptr %this.addr, align 8
  %this1 = load ptr, ptr %this.addr, align 8
  ret ptr %this1
}

; Function Attrs: mustprogress nounwind uwtable
define linkonce_odr void @_ZNSaIhED2Ev(ptr noundef nonnull align 1 dereferenceable(1) %this) unnamed_addr #2 comdat align 2 {
entry:
  %this.addr = alloca ptr, align 8
  store ptr %this, ptr %this.addr, align 8
  %this1 = load ptr, ptr %this.addr, align 8
  call void @_ZNSt15__new_allocatorIhED2Ev(ptr noundef nonnull align 1 dereferenceable(1) %this1) #29
  ret void
}

; Function Attrs: mustprogress uwtable
define linkonce_odr void @_ZN5folly21deallocateOverAlignedISaIhELm16EEEvRKT_NSt16allocator_traitsIS2_E7pointerEm(ptr noundef nonnull align 1 dereferenceable(1) %alloc, ptr noundef %ptr, i64 noundef %n) #0 comdat {
entry:
  %alloc.addr = alloca ptr, align 8
  %ptr.addr = alloca ptr, align 8
  %n.addr = alloca i64, align 8
  %raw = alloca ptr, align 8
  store ptr %alloc, ptr %alloc.addr, align 8
  store ptr %ptr, ptr %ptr.addr, align 8
  store i64 %n, ptr %n.addr, align 8
  %0 = load ptr, ptr %ptr.addr, align 8
  store ptr %0, ptr %raw, align 8
  %1 = load ptr, ptr %alloc.addr, align 8
  %2 = load i64, ptr %n.addr, align 8
  call void @_ZN5folly6detail18rawOverAlignedImplISaIhELm16ELb0EEEvRKT_mRPv(ptr noundef nonnull align 1 dereferenceable(1) %1, i64 noundef %2, ptr noundef nonnull align 8 dereferenceable(8) %raw)
  ret void
}

; Function Attrs: mustprogress nounwind uwtable
define internal void @_ZNSaIhEC2IN8facebook5velox9functions12_GLOBAL__N_122ComplexTypeInPredicate12ComplexValueEEERKSaIT_E(ptr noundef nonnull align 1 dereferenceable(1) %this, ptr noundef nonnull align 1 dereferenceable(1) %0) unnamed_addr #2 align 2 {
entry:
  %this.addr = alloca ptr, align 8
  %.addr = alloca ptr, align 8
  store ptr %this, ptr %this.addr, align 8
  store ptr %0, ptr %.addr, align 8
  %this1 = load ptr, ptr %this.addr, align 8
  call void @_ZNSt15__new_allocatorIhEC2Ev(ptr noundef nonnull align 1 dereferenceable(1) %this1) #29
  ret void
}

; Function Attrs: mustprogress uwtable
define internal noundef nonnull align 1 dereferenceable(1) ptr @_ZN5folly3f146detail10BasePolicyIN8facebook5velox9functions12_GLOBAL__N_122ComplexTypeInPredicate12ComplexValueEvNS7_16ComplexValueHashENS7_19ComplexValueEqualToEvS8_E5allocEv(ptr noundef nonnull align 1 dereferenceable(1) %this) #0 align 2 {
entry:
  %this.addr = alloca ptr, align 8
  store ptr %this, ptr %this.addr, align 8
  %this1 = load ptr, ptr %this.addr, align 8
  %call = call noundef nonnull align 1 dereferenceable(1) ptr @_ZN5folly3f146detail12ObjectHolderILc65ESaIN8facebook5velox9functions12_GLOBAL__N_122ComplexTypeInPredicate12ComplexValueEELb1EEdeEv(ptr noundef nonnull align 1 dereferenceable(1) %this1)
  ret ptr %call
}

; Function Attrs: mustprogress uwtable
define internal void @_ZN5folly3f146detail10BasePolicyIN8facebook5velox9functions12_GLOBAL__N_122ComplexTypeInPredicate12ComplexValueEvNS7_16ComplexValueHashENS7_19ComplexValueEqualToEvS8_E11afterRehashEbbmmmPhm(ptr noundef nonnull align 1 dereferenceable(1) %this, i1 noundef zeroext %0, i1 noundef zeroext %1, i64 noundef %2, i64 noundef %3, i64 noundef %4, ptr noundef %chunkAllocation, i64 noundef %chunkAllocSize) #0 align 2 personality ptr @__gxx_personality_v0 {
entry:
  %this.addr = alloca ptr, align 8
  %.addr = alloca i8, align 1
  %.addr1 = alloca i8, align 1
  %.addr3 = alloca i64, align 8
  %.addr4 = alloca i64, align 8
  %.addr5 = alloca i64, align 8
  %chunkAllocation.addr = alloca ptr, align 8
  %chunkAllocSize.addr = alloca i64, align 8
  %ref.tmp = alloca %"class.std::allocator.726", align 1
  %exn.slot = alloca ptr, align 8
  %ehselector.slot = alloca i32, align 4
  store ptr %this, ptr %this.addr, align 8
  %frombool = zext i1 %0 to i8
  store i8 %frombool, ptr %.addr, align 1
  %frombool2 = zext i1 %1 to i8
  store i8 %frombool2, ptr %.addr1, align 1
  store i64 %2, ptr %.addr3, align 8
  store i64 %3, ptr %.addr4, align 8
  store i64 %4, ptr %.addr5, align 8
  store ptr %chunkAllocation, ptr %chunkAllocation.addr, align 8
  store i64 %chunkAllocSize, ptr %chunkAllocSize.addr, align 8
  %this6 = load ptr, ptr %this.addr, align 8
  %5 = load ptr, ptr %chunkAllocation.addr, align 8
  %cmp = icmp ne ptr %5, null
  br i1 %cmp, label %if.then, label %if.end

if.then:                                          ; preds = %entry
  %call = call noundef nonnull align 1 dereferenceable(1) ptr @_ZN5folly3f146detail10BasePolicyIN8facebook5velox9functions12_GLOBAL__N_122ComplexTypeInPredicate12ComplexValueEvNS7_16ComplexValueHashENS7_19ComplexValueEqualToEvS8_E5allocEv(ptr noundef nonnull align 1 dereferenceable(1) %this6)
  call void @_ZNSaIhEC2IN8facebook5velox9functions12_GLOBAL__N_122ComplexTypeInPredicate12ComplexValueEEERKSaIT_E(ptr noundef nonnull align 1 dereferenceable(1) %ref.tmp, ptr noundef nonnull align 1 dereferenceable(1) %call) #29
  %6 = load ptr, ptr %chunkAllocation.addr, align 8
  %7 = load i64, ptr %chunkAllocSize.addr, align 8
  invoke void @_ZN5folly21deallocateOverAlignedISaIhELm16EEEvRKT_NSt16allocator_traitsIS2_E7pointerEm(ptr noundef nonnull align 1 dereferenceable(1) %ref.tmp, ptr noundef %6, i64 noundef %7)
          to label %invoke.cont unwind label %lpad

invoke.cont:                                      ; preds = %if.then
  call void @_ZNSaIhED2Ev(ptr noundef nonnull align 1 dereferenceable(1) %ref.tmp) #29
  br label %if.end

lpad:                                             ; preds = %if.then
  %8 = landingpad { ptr, i32 }
          cleanup
  %9 = extractvalue { ptr, i32 } %8, 0
  store ptr %9, ptr %exn.slot, align 8
  %10 = extractvalue { ptr, i32 } %8, 1
  store i32 %10, ptr %ehselector.slot, align 4
  call void @_ZNSaIhED2Ev(ptr noundef nonnull align 1 dereferenceable(1) %ref.tmp) #29
  br label %eh.resume

if.end:                                           ; preds = %invoke.cont, %entry
  ret void

eh.resume:                                        ; preds = %lpad
  %exn = load ptr, ptr %exn.slot, align 8
  %sel = load i32, ptr %ehselector.slot, align 4
  %lpad.val = insertvalue { ptr, i32 } poison, ptr %exn, 0
  %lpad.val7 = insertvalue { ptr, i32 } %lpad.val, i32 %sel, 1
  resume { ptr, i32 } %lpad.val7
}

; Function Attrs: mustprogress nounwind uwtable
define linkonce_odr noundef ptr @_ZNSt19__ptr_traits_ptr_toIPhhLb0EE10pointer_toERh(ptr noundef nonnull align 1 dereferenceable(1) %__r) #2 comdat align 2 {
entry:
  %__r.addr = alloca ptr, align 8
  store ptr %__r, ptr %__r.addr, align 8
  %0 = load ptr, ptr %__r.addr, align 8
  ret ptr %0
}

; Function Attrs: noreturn nounwind uwtable
define linkonce_odr hidden void @__clang_call_terminate(ptr noundef %0) #5 comdat {
  %2 = call ptr @__cxa_begin_catch(ptr %0) #29
  call void @_ZSt9terminatev() #30
  unreachable
}

; Function Attrs: mustprogress nounwind uwtable
define internal void @_ZZN5folly3f146detail8F14TableINS1_20ValueContainerPolicyIN8facebook5velox9functions12_GLOBAL__N_122ComplexTypeInPredicate12ComplexValueEvNS8_16ComplexValueHashENS8_19ComplexValueEqualToEvEEE10rehashImplEmmmmmENKUlvE_clEv(ptr noundef nonnull align 8 dereferenceable(88) %this) #2 align 2 personality ptr @__gxx_personality_v0 {
entry:
  %this.addr = alloca ptr, align 8
  %finishedRawAllocation = alloca ptr, align 8
  %finishedAllocSize = alloca i64, align 8
  store ptr %this, ptr %this.addr, align 8
  %this1 = load ptr, ptr %this.addr, align 8
  %0 = getelementptr inbounds %class.anon.777, ptr %this1, i32 0, i32 6
  %1 = load ptr, ptr %0, align 8
  store ptr null, ptr %finishedRawAllocation, align 8
  store i64 0, ptr %finishedAllocSize, align 8
  %2 = getelementptr inbounds %class.anon.777, ptr %this1, i32 0, i32 0
  %3 = load ptr, ptr %2, align 8
  %4 = load i8, ptr %3, align 1
  %tobool = trunc i8 %4 to i1
  br i1 %tobool, label %if.then, label %if.else

if.then:                                          ; preds = %entry
  %5 = getelementptr inbounds %class.anon.777, ptr %this1, i32 0, i32 1
  %6 = load ptr, ptr %5, align 8
  %7 = load i64, ptr %6, align 8
  %cmp = icmp ugt i64 %7, 0
  br i1 %cmp, label %if.then2, label %if.end

if.then2:                                         ; preds = %if.then
  %8 = getelementptr inbounds %class.anon.777, ptr %this1, i32 0, i32 2
  %9 = load ptr, ptr %8, align 8
  %10 = load ptr, ptr %9, align 8
  %call = call noundef ptr @_ZNSt19__ptr_traits_ptr_toIPhhLb0EE10pointer_toERh(ptr noundef nonnull align 1 dereferenceable(1) %10) #29
  store ptr %call, ptr %finishedRawAllocation, align 8
  %11 = getelementptr inbounds %class.anon.777, ptr %this1, i32 0, i32 3
  %12 = load ptr, ptr %11, align 8
  %13 = load i64, ptr %12, align 8
  store i64 %13, ptr %finishedAllocSize, align 8
  br label %if.end

if.end:                                           ; preds = %if.then2, %if.then
  br label %if.end3

if.else:                                          ; preds = %entry
  %14 = getelementptr inbounds %class.anon.777, ptr %this1, i32 0, i32 4
  %15 = load ptr, ptr %14, align 8
  %16 = load ptr, ptr %15, align 8
  store ptr %16, ptr %finishedRawAllocation, align 8
  %17 = getelementptr inbounds %class.anon.777, ptr %this1, i32 0, i32 5
  %18 = load ptr, ptr %17, align 8
  %19 = load i64, ptr %18, align 8
  store i64 %19, ptr %finishedAllocSize, align 8
  %20 = getelementptr inbounds %class.anon.777, ptr %this1, i32 0, i32 2
  %21 = load ptr, ptr %20, align 8
  %22 = load ptr, ptr %21, align 8
  %chunks_ = getelementptr inbounds %"class.folly::f14::detail::F14Table.749", ptr %1, i32 0, i32 0
  store ptr %22, ptr %chunks_, align 8
  br label %do.body

do.body:                                          ; preds = %if.else
  br label %do.cond

do.cond:                                          ; preds = %do.body
  br label %do.end

do.end:                                           ; preds = %do.cond
  %23 = getelementptr inbounds %class.anon.777, ptr %this1, i32 0, i32 7
  %24 = load ptr, ptr %23, align 8
  %25 = load i64, ptr %24, align 8
  %sub = sub i64 %25, 1
  %chunkMask_ = getelementptr inbounds %"class.folly::f14::detail::F14Table.749", ptr %1, i32 0, i32 1
  store i64 %sub, ptr %chunkMask_, align 8
  call void @_ZN5folly3f146detail12F14LinkCheckILNS1_17F14IntrinsicsModeE2EE5checkEv() #29
  br label %if.end3

if.end3:                                          ; preds = %do.end, %if.end
  %26 = getelementptr inbounds %class.anon.777, ptr %this1, i32 0, i32 8
  %27 = load ptr, ptr %26, align 8
  %28 = load i8, ptr %27, align 1
  %tobool4 = trunc i8 %28 to i1
  %29 = getelementptr inbounds %class.anon.777, ptr %this1, i32 0, i32 0
  %30 = load ptr, ptr %29, align 8
  %31 = load i8, ptr %30, align 1
  %tobool5 = trunc i8 %31 to i1
  %32 = getelementptr inbounds %class.anon.777, ptr %this1, i32 0, i32 9
  %33 = load ptr, ptr %32, align 8
  %34 = load i64, ptr %33, align 8
  %35 = getelementptr inbounds %class.anon.777, ptr %this1, i32 0, i32 1
  %36 = load ptr, ptr %35, align 8
  %37 = load i64, ptr %36, align 8
  %38 = getelementptr inbounds %class.anon.777, ptr %this1, i32 0, i32 10
  %39 = load ptr, ptr %38, align 8
  %40 = load i64, ptr %39, align 8
  %41 = load ptr, ptr %finishedRawAllocation, align 8
  %42 = load i64, ptr %finishedAllocSize, align 8
  invoke void @_ZN5folly3f146detail10BasePolicyIN8facebook5velox9functions12_GLOBAL__N_122ComplexTypeInPredicate12ComplexValueEvNS7_16ComplexValueHashENS7_19ComplexValueEqualToEvS8_E11afterRehashEbbmmmPhm(ptr noundef nonnull align 1 dereferenceable(1) %1, i1 noundef zeroext %tobool4, i1 noundef zeroext %tobool5, i64 noundef %34, i64 noundef %37, i64 noundef %40, ptr noundef %41, i64 noundef %42)
          to label %invoke.cont unwind label %terminate.lpad

invoke.cont:                                      ; preds = %if.end3
  ret void

terminate.lpad:                                   ; preds = %if.end3
  %43 = landingpad { ptr, i32 }
          catch ptr null
  %44 = extractvalue { ptr, i32 } %43, 0
  call void @__clang_call_terminate(ptr %44) #30
  unreachable
}

; Function Attrs: mustprogress nounwind uwtable
define internal void @_ZN5folly6detail14ScopeGuardImplIZNS_3f146detail8F14TableINS3_20ValueContainerPolicyIN8facebook5velox9functions12_GLOBAL__N_122ComplexTypeInPredicate12ComplexValueEvNSA_16ComplexValueHashENSA_19ComplexValueEqualToEvEEE10rehashImplEmmmmmEUlvE_Lb1EE7executeEv(ptr noundef nonnull align 8 dereferenceable(96) %this) #2 align 2 personality ptr @__gxx_personality_v0 {
entry:
  %t.addr.i = alloca ptr, align 8
  %c.addr.i = alloca ptr, align 8
  %this.addr = alloca ptr, align 8
  %catcher_word = alloca i64, align 8
  %catcher = alloca ptr, align 8
  store ptr %this, ptr %this.addr, align 8
  %this1 = load ptr, ptr %this.addr, align 8
  store i64 ptrtoint (ptr @_ZN5folly6detail18ScopeGuardImplBase9terminateEv to i64), ptr %catcher_word, align 8
  %0 = load i64, ptr %catcher_word, align 8
  %1 = inttoptr i64 %0 to ptr
  store ptr %1, ptr %catcher, align 8
  %function_ = getelementptr inbounds %"class.folly::detail::ScopeGuardImpl.776", ptr %this1, i32 0, i32 1
  store ptr %function_, ptr %t.addr.i, align 8
  store ptr %catcher, ptr %c.addr.i, align 8
  %2 = load ptr, ptr %t.addr.i, align 8
  call void @_ZZN5folly3f146detail8F14TableINS1_20ValueContainerPolicyIN8facebook5velox9functions12_GLOBAL__N_122ComplexTypeInPredicate12ComplexValueEvNS8_16ComplexValueHashENS8_19ComplexValueEqualToEvEEE10rehashImplEmmmmmENKUlvE_clEv(ptr noundef nonnull align 8 dereferenceable(88) %2) #29
  br label %invoke.cont

invoke.cont:                                      ; preds = %entry
  ret void

terminate.lpad:                                   ; No predecessors!
  %3 = landingpad { ptr, i32 }
          catch ptr null
  %4 = extractvalue { ptr, i32 } %3, 0
  call void @__clang_call_terminate(ptr %4) #30
  unreachable
}

; Function Attrs: mustprogress nounwind uwtable
define internal void @_ZN5folly6detail14ScopeGuardImplIZNS_3f146detail8F14TableINS3_20ValueContainerPolicyIN8facebook5velox9functions12_GLOBAL__N_122ComplexTypeInPredicate12ComplexValueEvNSA_16ComplexValueHashENSA_19ComplexValueEqualToEvEEE10rehashImplEmmmmmEUlvE_Lb1EED2Ev(ptr noundef nonnull align 8 dereferenceable(96) %this) unnamed_addr #2 align 2 {
entry:
  %this.addr = alloca ptr, align 8
  store ptr %this, ptr %this.addr, align 8
  %this1 = load ptr, ptr %this.addr, align 8
  %dismissed_ = getelementptr inbounds %"class.folly::detail::ScopeGuardImplBase", ptr %this1, i32 0, i32 0
  %0 = load i8, ptr %dismissed_, align 8
  %tobool = trunc i8 %0 to i1
  br i1 %tobool, label %if.end, label %if.then

if.then:                                          ; preds = %entry
  call void @_ZN5folly6detail14ScopeGuardImplIZNS_3f146detail8F14TableINS3_20ValueContainerPolicyIN8facebook5velox9functions12_GLOBAL__N_122ComplexTypeInPredicate12ComplexValueEvNSA_16ComplexValueHashENSA_19ComplexValueEqualToEvEEE10rehashImplEmmmmmEUlvE_Lb1EE7executeEv(ptr noundef nonnull align 8 dereferenceable(96) %this1) #29
  br label %if.end

if.end:                                           ; preds = %if.then, %entry
  ret void
}