; Function Attrs: mustprogress nounwind uwtable
define internal fastcc void @_ZN5folly6detail14ScopeGuardImplIZNS_3f146detail8F14TableINS3_20ValueContainerPolicyIN8facebook5velox9functions12_GLOBAL__N_122ComplexTypeInPredicate12ComplexValueEvNSA_16ComplexValueHashENSA_19ComplexValueEqualToEvEEE10rehashImplEmmmmmEUlvE_Lb1EED2Ev(ptr nocapture noundef nonnull readonly align 8 dereferenceable(96) %this) unnamed_addr #3 align 2 personality ptr @__gxx_personality_v0 {
entry:
  %0 = load i8, ptr %this, align 8
  %1 = and i8 %0, 1
  %tobool.not = icmp eq i8 %1, 0
  br i1 %tobool.not, label %if.then, label %if.end

if.then:                                          ; preds = %entry
  %function_.i = getelementptr inbounds i8, ptr %this, i64 8
  %2 = load ptr, ptr %function_.i, align 8
  %3 = load i8, ptr %2, align 1
  %4 = and i8 %3, 1
  %tobool.not.i.i = icmp eq i8 %4, 0
  br i1 %tobool.not.i.i, label %if.else.i.i, label %if.then.i.i

if.then.i.i:                                      ; preds = %if.then
  %5 = getelementptr inbounds i8, ptr %this, i64 16
  %6 = load ptr, ptr %5, align 8
  %7 = load i64, ptr %6, align 8
  %cmp.not.i.i = icmp eq i64 %7, 0
  br i1 %cmp.not.i.i, label %if.end, label %if.then2.i.i

if.then2.i.i:                                     ; preds = %if.then.i.i
  %8 = getelementptr inbounds i8, ptr %this, i64 24
  %9 = load ptr, ptr %8, align 8
  %10 = load ptr, ptr %9, align 8
  br label %if.end3.i.i

if.else.i.i:                                      ; preds = %if.then
  %11 = getelementptr inbounds i8, ptr %this, i64 56
  %12 = load ptr, ptr %11, align 8
  %13 = getelementptr inbounds i8, ptr %this, i64 40
  %14 = load ptr, ptr %13, align 8
  %15 = load ptr, ptr %14, align 8
  %16 = getelementptr inbounds i8, ptr %this, i64 24
  %17 = load ptr, ptr %16, align 8
  %18 = load ptr, ptr %17, align 8
  store ptr %18, ptr %12, align 8
  %19 = getelementptr inbounds i8, ptr %this, i64 64
  %20 = load ptr, ptr %19, align 8
  %21 = load i64, ptr %20, align 8
  %sub.i.i = add i64 %21, -1
  %chunkMask_.i.i = getelementptr inbounds i8, ptr %12, i64 8
  store i64 %sub.i.i, ptr %chunkMask_.i.i, align 8
  tail call void @_ZN5folly3f146detail12F14LinkCheckILNS1_17F14IntrinsicsModeE2EE5checkEv() #34
  br label %if.end3.i.i

if.end3.i.i:                                      ; preds = %if.else.i.i, %if.then2.i.i
  %finishedRawAllocation.0.i.i = phi ptr [ %10, %if.then2.i.i ], [ %15, %if.else.i.i ]
  %cmp.not.i.i.i = icmp eq ptr %finishedRawAllocation.0.i.i, null
  br i1 %cmp.not.i.i.i, label %if.end, label %invoke.cont.i.i.i

invoke.cont.i.i.i:                                ; preds = %if.end3.i.i
  tail call void @_ZdlPv(ptr noundef nonnull %finishedRawAllocation.0.i.i) #37
  br label %if.end

if.end:                                           ; preds = %invoke.cont.i.i.i, %if.end3.i.i, %if.then.i.i, %entry
  ret void
}